; Function Attrs: mustprogress nofree norecurse nosync nounwind willreturn memory(read, inaccessiblemem: none) uwtable
define noundef i32 @_ZTv0_n72_NK3zmq29zap_client_common_handshake_t6statusEv(ptr nocapture noundef readonly %this) unnamed_addr #7 align 2 {
entry:
  %0 = load ptr, ptr %this, align 8
  %1 = getelementptr inbounds i8, ptr %0, i64 -72
  %2 = load i64, ptr %1, align 8
  %3 = getelementptr inbounds i8, ptr %this, i64 %2
  %state.i = getelementptr inbounds i8, ptr %3, i64 72
  %4 = load i32, ptr %state.i, align 8
  %switch.selectcmp.i = icmp eq i32 %4, 6
  %switch.select.i = select i1 %switch.selectcmp.i, i32 2, i32 0
  %switch.selectcmp1.i = icmp eq i32 %4, 7
  %switch.select2.i = select i1 %switch.selectcmp1.i, i32 1, i32 %switch.select.i
  ret i32 %switch.select2.i
}